target datalayout = "e-m:e-p270:32:32-p271:32:32-p272:64:64-i64:64-i128:128-f80:128-n8:16:32:64-S128"
target triple = "x86_64-pc-linux-gnu"

%struct.ctlog_store_st = type { ptr, ptr, ptr }

@.str = private unnamed_addr constant [30 x i8] c"../openssl/crypto/ct/ct_log.c\00", align 1

; Function Attrs: inlinehint nounwind uwtable
define internal ptr @ossl_check_CTLOG_freefunc_type(ptr noundef %0) #3 {
  %2 = alloca ptr, align 8
  store ptr %0, ptr %2, align 8, !tbaa !18
  %3 = load ptr, ptr %2, align 8, !tbaa !18
  ret ptr %3
}

; Function Attrs: inlinehint nounwind uwtable
define internal ptr @ossl_check_CTLOG_sk_type(ptr noundef %0) #3 {
  %2 = alloca ptr, align 8
  store ptr %0, ptr %2, align 8, !tbaa !17
  %3 = load ptr, ptr %2, align 8, !tbaa !17
  ret ptr %3
}

; Function Attrs: nounwind uwtable
define void @CTLOG_STORE_free(ptr noundef %0) #0 {
  %2 = alloca ptr, align 8
  store ptr %0, ptr %2, align 8, !tbaa !10
  %3 = load ptr, ptr %2, align 8, !tbaa !10
  %4 = icmp ne ptr %3, null
  br i1 %4, label %5, label %15

5:                                                ; preds = %1
  %6 = load ptr, ptr %2, align 8, !tbaa !10
  %7 = getelementptr inbounds nuw %struct.ctlog_store_st, ptr %6, i32 0, i32 1
  %8 = load ptr, ptr %7, align 8, !tbaa !15
  call void @CRYPTO_free(ptr noundef %8, ptr noundef @.str, i32 noundef 134)
  %9 = load ptr, ptr %2, align 8, !tbaa !10
  %10 = getelementptr inbounds nuw %struct.ctlog_store_st, ptr %9, i32 0, i32 2
  %11 = load ptr, ptr %10, align 8, !tbaa !16
  %12 = call ptr @ossl_check_CTLOG_sk_type(ptr noundef %11)
  %13 = call ptr @ossl_check_CTLOG_freefunc_type(ptr noundef @CTLOG_free)
  call void @OPENSSL_sk_pop_free(ptr noundef %12, ptr noundef %13)
  %14 = load ptr, ptr %2, align 8, !tbaa !10
  call void @CRYPTO_free(ptr noundef %14, ptr noundef @.str, i32 noundef 136)
  br label %15

15:                                               ; preds = %5, %1
  ret void
}